target datalayout = "e-m:e-p270:32:32-p271:32:32-p272:64:64-i64:64-i128:128-f80:128-n8:16:32:64-S128"
target triple = "x86_64-pc-linux-gnu"

%"class.Imath_3_2::half" = type { i16 }
%"class.Imf_3_4::HalfLut" = type { %class.halfFunction }
%class.halfFunction = type { ptr }
%"struct.Imf_3_4::Slice" = type <{ i32, [4 x i8], ptr, i64, i64, i32, i32, double, i8, i8, [6 x i8] }>
%"class.Imath_3_2::Box" = type { %"class.Imath_3_2::Vec2", %"class.Imath_3_2::Vec2" }
%"class.Imath_3_2::Vec2" = type { i32, i32 }

; Function Attrs: inlinehint mustprogress nounwind uwtable
define linkonce_odr hidden noundef zeroext i16 @_ZNK9Imath_3_24half4bitsEv(ptr noundef nonnull align 2 dereferenceable(2) %0) #6 comdat align 2 {
  %2 = alloca ptr, align 8
  store ptr %0, ptr %2, align 8, !tbaa !8
  %3 = load ptr, ptr %2, align 8
  %4 = getelementptr inbounds nuw %"class.Imath_3_2::half", ptr %3, i32 0, i32 0
  %5 = load i16, ptr %4, align 2, !tbaa !57
  ret i16 %5
}

; Function Attrs: inlinehint mustprogress nounwind uwtable
define linkonce_odr hidden i16 @_ZNK12halfFunctionIN9Imath_3_24halfEEclES1_(ptr noundef nonnull align 8 dereferenceable(8) %0, i16 %1) #6 comdat align 2 {
  %3 = alloca %"class.Imath_3_2::half", align 2
  %4 = alloca %"class.Imath_3_2::half", align 2
  %5 = alloca ptr, align 8
  %6 = getelementptr inbounds nuw %"class.Imath_3_2::half", ptr %4, i32 0, i32 0
  store i16 %1, ptr %6, align 2
  store ptr %0, ptr %5, align 8, !tbaa !17
  %7 = load ptr, ptr %5, align 8
  %8 = getelementptr inbounds nuw %class.halfFunction, ptr %7, i32 0, i32 0
  %9 = load ptr, ptr %8, align 8, !tbaa !19
  %10 = call noundef zeroext i16 @_ZNK9Imath_3_24half4bitsEv(ptr noundef nonnull align 2 dereferenceable(2) %4) #3
  %11 = zext i16 %10 to i64
  %12 = getelementptr inbounds nuw %"class.Imath_3_2::half", ptr %9, i64 %11
  call void @llvm.memcpy.p0.p0.i64(ptr align 2 %3, ptr align 2 %12, i64 2, i1 false), !tbaa.struct !12
  %13 = getelementptr inbounds nuw %"class.Imath_3_2::half", ptr %3, i32 0, i32 0
  %14 = load i16, ptr %13, align 2
  ret i16 %14
}

; Function Attrs: mustprogress uwtable
define void @_ZNK7Imf_3_47HalfLut5applyERKNS_5SliceERKN9Imath_3_23BoxINS4_4Vec2IiEEEE(ptr noundef nonnull align 8 dereferenceable(8) %0, ptr noundef nonnull align 8 dereferenceable(50) %1, ptr noundef nonnull align 4 dereferenceable(16) %2) #4 align 2 {
  %4 = alloca ptr, align 8
  %5 = alloca ptr, align 8
  %6 = alloca ptr, align 8
  %7 = alloca ptr, align 8
  %8 = alloca i32, align 4
  %9 = alloca i32, align 4
  %10 = alloca ptr, align 8
  %11 = alloca i32, align 4
  %12 = alloca %"class.Imath_3_2::half", align 2
  %13 = alloca %"class.Imath_3_2::half", align 2
  store ptr %0, ptr %4, align 8, !tbaa !3
  store ptr %1, ptr %5, align 8, !tbaa !21
  store ptr %2, ptr %6, align 8, !tbaa !23
  %14 = load ptr, ptr %4, align 8
  call void @llvm.lifetime.start.p0(i64 8, ptr %7) #3
  %15 = load ptr, ptr %5, align 8, !tbaa !21
  %16 = getelementptr inbounds nuw %"struct.Imf_3_4::Slice", ptr %15, i32 0, i32 2
  %17 = load ptr, ptr %16, align 8, !tbaa !25
  %18 = load ptr, ptr %5, align 8, !tbaa !21
  %19 = getelementptr inbounds nuw %"struct.Imf_3_4::Slice", ptr %18, i32 0, i32 4
  %20 = load i64, ptr %19, align 8, !tbaa !32
  %21 = load ptr, ptr %6, align 8, !tbaa !23
  %22 = getelementptr inbounds nuw %"class.Imath_3_2::Box", ptr %21, i32 0, i32 0
  %23 = getelementptr inbounds nuw %"class.Imath_3_2::Vec2", ptr %22, i32 0, i32 1
  %24 = load i32, ptr %23, align 4, !tbaa !33
  %25 = load ptr, ptr %5, align 8, !tbaa !21
  %26 = getelementptr inbounds nuw %"struct.Imf_3_4::Slice", ptr %25, i32 0, i32 6
  %27 = load i32, ptr %26, align 4, !tbaa !36
  %28 = sdiv i32 %24, %27
  %29 = sext i32 %28 to i64
  %30 = mul i64 %20, %29
  %31 = getelementptr inbounds nuw i8, ptr %17, i64 %30
  store ptr %31, ptr %7, align 8, !tbaa !37
  call void @llvm.lifetime.start.p0(i64 4, ptr %8) #3
  %32 = load ptr, ptr %6, align 8, !tbaa !23
  %33 = getelementptr inbounds nuw %"class.Imath_3_2::Box", ptr %32, i32 0, i32 0
  %34 = getelementptr inbounds nuw %"class.Imath_3_2::Vec2", ptr %33, i32 0, i32 1
  %35 = load i32, ptr %34, align 4, !tbaa !33
  store i32 %35, ptr %8, align 4, !tbaa !10
  br label %36

36:                                               ; preds = %97, %3
  %37 = load i32, ptr %8, align 4, !tbaa !10
  %38 = load ptr, ptr %6, align 8, !tbaa !23
  %39 = getelementptr inbounds nuw %"class.Imath_3_2::Box", ptr %38, i32 0, i32 1
  %40 = getelementptr inbounds nuw %"class.Imath_3_2::Vec2", ptr %39, i32 0, i32 1
  %41 = load i32, ptr %40, align 4, !tbaa !38
  %42 = icmp sle i32 %37, %41
  br i1 %42, label %44, label %43

43:                                               ; preds = %36
  store i32 2, ptr %9, align 4
  call void @llvm.lifetime.end.p0(i64 4, ptr %8) #3
  br label %103

44:                                               ; preds = %36
  call void @llvm.lifetime.start.p0(i64 8, ptr %10) #3
  %45 = load ptr, ptr %7, align 8, !tbaa !37
  %46 = load ptr, ptr %5, align 8, !tbaa !21
  %47 = getelementptr inbounds nuw %"struct.Imf_3_4::Slice", ptr %46, i32 0, i32 3
  %48 = load i64, ptr %47, align 8, !tbaa !39
  %49 = load ptr, ptr %6, align 8, !tbaa !23
  %50 = getelementptr inbounds nuw %"class.Imath_3_2::Box", ptr %49, i32 0, i32 0
  %51 = getelementptr inbounds nuw %"class.Imath_3_2::Vec2", ptr %50, i32 0, i32 0
  %52 = load i32, ptr %51, align 4, !tbaa !40
  %53 = load ptr, ptr %5, align 8, !tbaa !21
  %54 = getelementptr inbounds nuw %"struct.Imf_3_4::Slice", ptr %53, i32 0, i32 5
  %55 = load i32, ptr %54, align 8, !tbaa !41
  %56 = sdiv i32 %52, %55
  %57 = sext i32 %56 to i64
  %58 = mul i64 %48, %57
  %59 = getelementptr inbounds nuw i8, ptr %45, i64 %58
  store ptr %59, ptr %10, align 8, !tbaa !37
  call void @llvm.lifetime.start.p0(i64 4, ptr %11) #3
  %60 = load ptr, ptr %6, align 8, !tbaa !23
  %61 = getelementptr inbounds nuw %"class.Imath_3_2::Box", ptr %60, i32 0, i32 0
  %62 = getelementptr inbounds nuw %"class.Imath_3_2::Vec2", ptr %61, i32 0, i32 0
  %63 = load i32, ptr %62, align 4, !tbaa !40
  store i32 %63, ptr %11, align 4, !tbaa !10
  br label %64

64:                                               ; preds = %85, %44
  %65 = load i32, ptr %11, align 4, !tbaa !10
  %66 = load ptr, ptr %6, align 8, !tbaa !23
  %67 = getelementptr inbounds nuw %"class.Imath_3_2::Box", ptr %66, i32 0, i32 1
  %68 = getelementptr inbounds nuw %"class.Imath_3_2::Vec2", ptr %67, i32 0, i32 0
  %69 = load i32, ptr %68, align 4, !tbaa !42
  %70 = icmp sle i32 %65, %69
  br i1 %70, label %72, label %71

71:                                               ; preds = %64
  store i32 5, ptr %9, align 4
  call void @llvm.lifetime.end.p0(i64 4, ptr %11) #3
  br label %91

72:                                               ; preds = %64
  call void @llvm.lifetime.start.p0(i64 2, ptr %12) #3
  %73 = getelementptr inbounds nuw %"class.Imf_3_4::HalfLut", ptr %14, i32 0, i32 0
  %74 = load ptr, ptr %10, align 8, !tbaa !37
  call void @llvm.memcpy.p0.p0.i64(ptr align 2 %13, ptr align 2 %74, i64 2, i1 false), !tbaa.struct !12
  %75 = getelementptr inbounds nuw %"class.Imath_3_2::half", ptr %13, i32 0, i32 0
  %76 = load i16, ptr %75, align 2
  %77 = call i16 @_ZNK12halfFunctionIN9Imath_3_24halfEEclES1_(ptr noundef nonnull align 8 dereferenceable(8) %73, i16 %76)
  %78 = getelementptr inbounds nuw %"class.Imath_3_2::half", ptr %12, i32 0, i32 0
  store i16 %77, ptr %78, align 2
  %79 = load ptr, ptr %10, align 8, !tbaa !37
  call void @llvm.memcpy.p0.p0.i64(ptr align 2 %79, ptr align 2 %12, i64 2, i1 false), !tbaa.struct !12
  call void @llvm.lifetime.end.p0(i64 2, ptr %12) #3
  %80 = load ptr, ptr %5, align 8, !tbaa !21
  %81 = getelementptr inbounds nuw %"struct.Imf_3_4::Slice", ptr %80, i32 0, i32 3
  %82 = load i64, ptr %81, align 8, !tbaa !39
  %83 = load ptr, ptr %10, align 8, !tbaa !37
  %84 = getelementptr inbounds nuw i8, ptr %83, i64 %82
  store ptr %84, ptr %10, align 8, !tbaa !37
  br label %85

85:                                               ; preds = %72
  %86 = load ptr, ptr %5, align 8, !tbaa !21
  %87 = getelementptr inbounds nuw %"struct.Imf_3_4::Slice", ptr %86, i32 0, i32 5
  %88 = load i32, ptr %87, align 8, !tbaa !41
  %89 = load i32, ptr %11, align 4, !tbaa !10
  %90 = add nsw i32 %89, %88
  store i32 %90, ptr %11, align 4, !tbaa !10
  br label %64, !llvm.loop !43

91:                                               ; preds = %71
  %92 = load ptr, ptr %5, align 8, !tbaa !21
  %93 = getelementptr inbounds nuw %"struct.Imf_3_4::Slice", ptr %92, i32 0, i32 4
  %94 = load i64, ptr %93, align 8, !tbaa !32
  %95 = load ptr, ptr %7, align 8, !tbaa !37
  %96 = getelementptr inbounds nuw i8, ptr %95, i64 %94
  store ptr %96, ptr %7, align 8, !tbaa !37
  call void @llvm.lifetime.end.p0(i64 8, ptr %10) #3
  br label %97

97:                                               ; preds = %91
  %98 = load ptr, ptr %5, align 8, !tbaa !21
  %99 = getelementptr inbounds nuw %"struct.Imf_3_4::Slice", ptr %98, i32 0, i32 6
  %100 = load i32, ptr %99, align 4, !tbaa !36
  %101 = load i32, ptr %8, align 4, !tbaa !10
  %102 = add nsw i32 %101, %100
  store i32 %102, ptr %8, align 4, !tbaa !10
  br label %36, !llvm.loop !44

103:                                              ; preds = %43
  call void @llvm.lifetime.end.p0(i64 8, ptr %7) #3
  ret void
}