; Function Attrs: mustprogress nofree norecurse nosync nounwind memory(readwrite, inaccessiblemem: none) uwtable
define void @_ZNK7Imf_3_47HalfLut5applyERKNS_5SliceERKN9Imath_3_23BoxINS4_4Vec2IiEEEE(ptr noundef nonnull readonly align 8 captures(none) dereferenceable(8) %0, ptr noundef nonnull readonly align 8 captures(none) dereferenceable(50) %1, ptr noundef nonnull readonly align 4 captures(none) dereferenceable(16) %2) local_unnamed_addr #4 align 2 {
  %4 = getelementptr inbounds nuw i8, ptr %1, i64 24
  %5 = load i64, ptr %4, align 8, !tbaa !13
  %6 = getelementptr inbounds nuw i8, ptr %2, i64 4
  %7 = load i32, ptr %6, align 4, !tbaa !21
  %8 = getelementptr inbounds nuw i8, ptr %1, i64 36
  %9 = load i32, ptr %8, align 4, !tbaa !24
  %10 = getelementptr inbounds nuw i8, ptr %2, i64 12
  %11 = load i32, ptr %10, align 4, !tbaa !25
  %.not32 = icmp sgt i32 %7, %11
  br i1 %.not32, label %._crit_edge37, label %.lr.ph36

.lr.ph36:                                         ; preds = %3
  %12 = getelementptr inbounds nuw i8, ptr %2, i64 8
  %13 = getelementptr inbounds nuw i8, ptr %1, i64 16
  %14 = load i64, ptr %13, align 8, !tbaa !26
  %15 = load i32, ptr %2, align 4, !tbaa !27
  %16 = getelementptr inbounds nuw i8, ptr %1, i64 32
  %17 = load i32, ptr %16, align 8, !tbaa !28
  %18 = sdiv i32 %15, %17
  %19 = sext i32 %18 to i64
  %20 = mul i64 %14, %19
  %21 = load i32, ptr %12, align 4, !tbaa !29
  %.not2829 = icmp sgt i32 %15, %21
  %22 = load ptr, ptr %0, align 8
  br i1 %.not2829, label %._crit_edge37, label %.lr.ph.preheader

.lr.ph.preheader:                                 ; preds = %.lr.ph36
  %23 = getelementptr inbounds nuw i8, ptr %1, i64 8
  %24 = load ptr, ptr %23, align 8, !tbaa !30
  %25 = sdiv i32 %7, %9
  %26 = sext i32 %25 to i64
  %27 = mul i64 %5, %26
  %28 = getelementptr inbounds nuw i8, ptr %24, i64 %27
  br label %.lr.ph

._crit_edge37:                                    ; preds = %._crit_edge, %.lr.ph36, %3
  ret void

.lr.ph:                                           ; preds = %.lr.ph.preheader, %._crit_edge
  %.034 = phi ptr [ %30, %._crit_edge ], [ %28, %.lr.ph.preheader ]
  %.02533 = phi i32 [ %31, %._crit_edge ], [ %7, %.lr.ph.preheader ]
  %29 = getelementptr inbounds nuw i8, ptr %.034, i64 %20
  br label %32

._crit_edge:                                      ; preds = %32
  %30 = getelementptr inbounds nuw i8, ptr %.034, i64 %5
  %31 = add nsw i32 %.02533, %9
  %.not = icmp sgt i32 %31, %11
  br i1 %.not, label %._crit_edge37, label %.lr.ph, !llvm.loop !31

32:                                               ; preds = %.lr.ph, %32
  %.02631 = phi i32 [ %15, %.lr.ph ], [ %36, %32 ]
  %.02730 = phi ptr [ %29, %.lr.ph ], [ %35, %32 ]
  %.sroa.0.0.copyload = load i16, ptr %.02730, align 2, !tbaa !9
  %33 = zext i16 %.sroa.0.0.copyload to i64
  %34 = getelementptr inbounds nuw %"class.Imath_3_2::half", ptr %22, i64 %33
  %.sroa.0.0.copyload.i = load i16, ptr %34, align 2, !tbaa !9
  store i16 %.sroa.0.0.copyload.i, ptr %.02730, align 2, !tbaa !9
  %35 = getelementptr inbounds nuw i8, ptr %.02730, i64 %14
  %36 = add nsw i32 %.02631, %17
  %.not28 = icmp sgt i32 %36, %21
  br i1 %.not28, label %._crit_edge, label %32, !llvm.loop !32
}